target datalayout = "e-m:e-p270:32:32-p271:32:32-p272:64:64-i64:64-i128:128-f80:128-n8:16:32:64-S128"
target triple = "x86_64-unknown-linux-gnu"

%struct.Dl_info = type { ptr, ptr, ptr, ptr }

@.str.284 = private unnamed_addr constant [25 x i8] c"Function at 0x%lx is %s\0A\00", align 1

; Function Attrs: nounwind uwtable
define dso_local void @dumpX86Calls(ptr noundef %addr, i64 noundef %len) #0 {
entry:
  %addr.addr = alloca ptr, align 8
  %len.addr = alloca i64, align 8
  %j = alloca i64, align 8
  %p = alloca ptr, align 8
  %info = alloca %struct.Dl_info, align 8
  %ht = alloca [256 x i64], align 16
  %target = alloca i64, align 8
  %tmp = alloca i32, align 4
  store ptr %addr, ptr %addr.addr, align 8
  store i64 %len, ptr %len.addr, align 8
  %0 = load ptr, ptr %addr.addr, align 8
  store ptr %0, ptr %p, align 8
  call void @llvm.memset.p0.i64(ptr align 16 %ht, i8 0, i64 2048, i1 false)
  %1 = load i64, ptr %len.addr, align 8
  %cmp = icmp ult i64 %1, 5
  br i1 %cmp, label %if.then, label %if.end

if.then:                                          ; preds = %entry
  br label %for.end

if.end:                                           ; preds = %entry
  store i64 0, ptr %j, align 8
  br label %for.cond

for.cond:                                         ; preds = %for.inc, %if.end
  %2 = load i64, ptr %j, align 8
  %3 = load i64, ptr %len.addr, align 8
  %sub = sub i64 %3, 4
  %cmp1 = icmp ult i64 %2, %sub
  br i1 %cmp1, label %for.body, label %for.end

for.body:                                         ; preds = %for.cond
  %4 = load ptr, ptr %p, align 8
  %5 = load i64, ptr %j, align 8
  %arrayidx = getelementptr inbounds i8, ptr %4, i64 %5
  %6 = load i8, ptr %arrayidx, align 1
  %conv = zext i8 %6 to i32
  %cmp2 = icmp ne i32 %conv, 232
  br i1 %cmp2, label %if.then4, label %if.end5

if.then4:                                         ; preds = %for.body
  br label %for.inc

if.end5:                                          ; preds = %for.body
  %7 = load ptr, ptr %addr.addr, align 8
  %8 = ptrtoint ptr %7 to i64
  %9 = load i64, ptr %j, align 8
  %add = add i64 %8, %9
  %add6 = add i64 %add, 5
  store i64 %add6, ptr %target, align 8
  %10 = load ptr, ptr %p, align 8
  %11 = load i64, ptr %j, align 8
  %add.ptr = getelementptr inbounds i8, ptr %10, i64 %11
  %add.ptr7 = getelementptr inbounds i8, ptr %add.ptr, i64 1
  call void @llvm.memcpy.p0.p0.i64(ptr align 4 %tmp, ptr align 1 %add.ptr7, i64 4, i1 false)
  %12 = load i32, ptr %tmp, align 4
  %conv8 = zext i32 %12 to i64
  %13 = load i64, ptr %target, align 8
  %add9 = add i64 %13, %conv8
  store i64 %add9, ptr %target, align 8
  %14 = load i64, ptr %target, align 8
  %15 = inttoptr i64 %14 to ptr
  %call = call i32 @dladdr(ptr noundef %15, ptr noundef %info) #14
  %cmp10 = icmp ne i32 %call, 0
  br i1 %cmp10, label %land.lhs.true, label %if.end25

land.lhs.true:                                    ; preds = %if.end5
  %dli_sname = getelementptr inbounds %struct.Dl_info, ptr %info, i32 0, i32 2
  %16 = load ptr, ptr %dli_sname, align 8
  %cmp12 = icmp ne ptr %16, null
  br i1 %cmp12, label %if.then14, label %if.end25

if.then14:                                        ; preds = %land.lhs.true
  %17 = load i64, ptr %target, align 8
  %and = and i64 %17, 255
  %arrayidx15 = getelementptr inbounds [256 x i64], ptr %ht, i64 0, i64 %and
  %18 = load i64, ptr %arrayidx15, align 8
  %19 = load i64, ptr %target, align 8
  %cmp16 = icmp ne i64 %18, %19
  br i1 %cmp16, label %if.then18, label %if.end23

if.then18:                                        ; preds = %if.then14
  %20 = load i64, ptr %target, align 8
  %dli_sname19 = getelementptr inbounds %struct.Dl_info, ptr %info, i32 0, i32 2
  %21 = load ptr, ptr %dli_sname19, align 8
  %call20 = call i32 (ptr, ...) @printf(ptr noundef @.str.284, i64 noundef %20, ptr noundef %21)
  %22 = load i64, ptr %target, align 8
  %23 = load i64, ptr %target, align 8
  %and21 = and i64 %23, 255
  %arrayidx22 = getelementptr inbounds [256 x i64], ptr %ht, i64 0, i64 %and21
  store i64 %22, ptr %arrayidx22, align 8
  br label %if.end23

if.end23:                                         ; preds = %if.then18, %if.then14
  %24 = load i64, ptr %j, align 8
  %add24 = add i64 %24, 4
  store i64 %add24, ptr %j, align 8
  br label %if.end25

if.end25:                                         ; preds = %if.end23, %land.lhs.true, %if.end5
  br label %for.inc

for.inc:                                          ; preds = %if.end25, %if.then4
  %25 = load i64, ptr %j, align 8
  %inc = add i64 %25, 1
  store i64 %inc, ptr %j, align 8
  br label %for.cond, !llvm.loop !34

for.end:                                          ; preds = %for.cond, %if.then
  ret void
}