; Function Attrs: nounwind uwtable
define dso_local void @dumpX86Calls(ptr noundef %addr, i64 noundef %len) local_unnamed_addr #0 {
entry:
  %info = alloca %struct.Dl_info, align 8
  %ht = alloca [256 x i64], align 16
  call void @llvm.memset.p0.i64(ptr noundef nonnull align 16 dereferenceable(2048) %ht, i8 0, i64 2048, i1 false)
  %cmp = icmp ult i64 %len, 5
  br i1 %cmp, label %for.end, label %for.body.lr.ph

for.body.lr.ph:                                   ; preds = %entry
  %sub = add i64 %len, -4
  %0 = ptrtoint ptr %addr to i64
  %add = add i64 %0, 5
  %dli_sname = getelementptr inbounds i8, ptr %info, i64 16
  br label %for.body

for.body:                                         ; preds = %for.body.lr.ph, %for.inc
  %j.016 = phi i64 [ 0, %for.body.lr.ph ], [ %inc, %for.inc ]
  %arrayidx = getelementptr inbounds i8, ptr %addr, i64 %j.016
  %1 = load i8, ptr %arrayidx, align 1
  %cmp2.not = icmp eq i8 %1, -24
  br i1 %cmp2.not, label %if.end5, label %for.inc

if.end5:                                          ; preds = %for.body
  %add.ptr7 = getelementptr inbounds i8, ptr %arrayidx, i64 1
  %tmp.0.copyload = load i32, ptr %add.ptr7, align 1
  %conv8 = zext i32 %tmp.0.copyload to i64
  %add6 = add i64 %add, %j.016
  %add9 = add i64 %add6, %conv8
  %2 = inttoptr i64 %add9 to ptr
  %call = call i32 @dladdr(ptr noundef %2, ptr noundef nonnull %info) #22
  %cmp10 = icmp ne i32 %call, 0
  %3 = load ptr, ptr %dli_sname, align 8
  %cmp12 = icmp ne ptr %3, null
  %or.cond = select i1 %cmp10, i1 %cmp12, i1 false
  br i1 %or.cond, label %if.then14, label %for.inc

if.then14:                                        ; preds = %if.end5
  %and = and i64 %add9, 255
  %arrayidx15 = getelementptr inbounds [256 x i64], ptr %ht, i64 0, i64 %and
  %4 = load i64, ptr %arrayidx15, align 8
  %cmp16.not = icmp eq i64 %4, %add9
  br i1 %cmp16.not, label %if.end23, label %if.then18

if.then18:                                        ; preds = %if.then14
  %call20 = call i32 (ptr, ...) @printf(ptr noundef nonnull dereferenceable(1) @.str.284, i64 noundef %add9, ptr noundef nonnull %3)
  store i64 %add9, ptr %arrayidx15, align 8
  br label %if.end23

if.end23:                                         ; preds = %if.then18, %if.then14
  %add24 = add nuw i64 %j.016, 4
  br label %for.inc

for.inc:                                          ; preds = %if.end5, %if.end23, %for.body
  %j.1 = phi i64 [ %j.016, %for.body ], [ %add24, %if.end23 ], [ %j.016, %if.end5 ]
  %inc = add i64 %j.1, 1
  %cmp1 = icmp ult i64 %inc, %sub
  br i1 %cmp1, label %for.body, label %for.end, !llvm.loop !38

for.end:                                          ; preds = %for.inc, %entry
  ret void
}